; Function Attrs: nounwind uwtable
define ptr @l_forall__prop__decidable___rarg___boxed(ptr noundef %0, ptr noundef %1) #0 {
  %3 = ptrtoint ptr %0 to i64
  %4 = and i64 %3, 1
  %.not = icmp eq i64 %4, 0
  br i1 %.not, label %5, label %lean_dec.exit

5:                                                ; preds = %2
  %6 = load i32, ptr %0, align 4, !tbaa !4
  %7 = icmp sgt i32 %6, 1
  br i1 %7, label %8, label %10, !prof !9

8:                                                ; preds = %5
  %9 = add nsw i32 %6, -1
  store i32 %9, ptr %0, align 4, !tbaa !4
  br label %lean_dec.exit

10:                                               ; preds = %5
  %.not.i = icmp eq i32 %6, 0
  br i1 %.not.i, label %lean_dec.exit, label %11

11:                                               ; preds = %10
  tail call void @lean_dec_ref_cold(ptr noundef nonnull %0) #4
  br label %lean_dec.exit

lean_dec.exit:                                    ; preds = %11, %10, %8, %2
  %12 = and i64 %3, 510
  %13 = icmp eq i64 %12, 0
  br i1 %13, label %14, label %24

14:                                               ; preds = %lean_dec.exit
  %15 = ptrtoint ptr %1 to i64
  %16 = and i64 %15, 1
  %.not.i4 = icmp eq i64 %16, 0
  br i1 %.not.i4, label %17, label %l_forall__prop__decidable___rarg.exit

17:                                               ; preds = %14
  %18 = load i32, ptr %1, align 4, !tbaa !4
  %19 = icmp sgt i32 %18, 1
  br i1 %19, label %20, label %22, !prof !9

20:                                               ; preds = %17
  %21 = add nsw i32 %18, -1
  store i32 %21, ptr %1, align 4, !tbaa !4
  br label %l_forall__prop__decidable___rarg.exit

22:                                               ; preds = %17
  %.not.i.i = icmp eq i32 %18, 0
  br i1 %.not.i.i, label %l_forall__prop__decidable___rarg.exit, label %23

23:                                               ; preds = %22
  tail call void @lean_dec_ref_cold(ptr noundef nonnull %1) #4
  br label %l_forall__prop__decidable___rarg.exit

24:                                               ; preds = %lean_dec.exit
  %25 = tail call ptr @lean_apply_1(ptr noundef %1, ptr noundef nonnull inttoptr (i64 1 to ptr)) #4
  br label %l_forall__prop__decidable___rarg.exit

l_forall__prop__decidable___rarg.exit:            ; preds = %14, %20, %22, %23, %24
  %.0.i = phi ptr [ %25, %24 ], [ inttoptr (i64 3 to ptr), %23 ], [ inttoptr (i64 3 to ptr), %22 ], [ inttoptr (i64 3 to ptr), %20 ], [ inttoptr (i64 3 to ptr), %14 ]
  ret ptr %.0.i
}